; Function Attrs: mustprogress uwtable
define void @_ZN7mitsuba10FileStream4readEPvm(ptr noundef nonnull align 8 dereferenceable(64) %0, ptr noundef %1, i64 noundef %2) unnamed_addr #0 align 2 personality ptr @__gxx_personality_v0 {
  %4 = alloca i64, align 8
  %5 = alloca i64, align 8
  %6 = alloca %"class.std::__1::basic_string", align 8
  %7 = alloca %"class.std::__1::basic_string", align 8
  %8 = alloca %"class.std::__1::basic_string", align 8
  %9 = alloca %"class.std::__1::basic_string", align 8
  %10 = alloca ptr, align 8
  store i64 %2, ptr %4, align 8
  %11 = getelementptr inbounds i8, ptr %0, i64 56
  %12 = load ptr, ptr %11, align 8
  %13 = tail call noundef nonnull align 8 dereferenceable(16) ptr @_ZNSt3__113basic_istreamIcNS_11char_traitsIcEEE4readEPcl(ptr noundef nonnull align 8 dereferenceable(16) %12, ptr noundef %1, i64 noundef %2)
  %14 = load ptr, ptr %11, align 8
  %15 = load ptr, ptr %14, align 8
  %16 = getelementptr i8, ptr %15, i64 -24
  %17 = load i64, ptr %16, align 8
  %18 = getelementptr inbounds i8, ptr %14, i64 %17
  %19 = getelementptr inbounds i8, ptr %18, i64 32
  %20 = load i32, ptr %19, align 8
  %21 = icmp eq i32 %20, 0
  br i1 %21, label %51, label %22

22:                                               ; preds = %3
  %23 = and i32 %20, 2
  %.not = icmp eq i32 %23, 0
  %24 = getelementptr inbounds i8, ptr %14, i64 8
  %25 = load i64, ptr %24, align 8
  store i64 %25, ptr %5, align 8
  tail call void @_ZNSt3__18ios_base5clearEj(ptr noundef nonnull align 8 dereferenceable(136) %18, i32 noundef 0)
  %26 = getelementptr inbounds i8, ptr %0, i64 24
  br i1 %.not, label %39, label %27

27:                                               ; preds = %22
  %28 = tail call ptr @__cxa_allocate_exception(i64 24) #19
  invoke void @_ZNK7mitsuba10filesystem4path6stringEv(ptr dead_on_unwind nonnull writable sret(%"class.std::__1::basic_string") align 8 %7, ptr noundef nonnull align 8 dereferenceable(25) %26)
          to label %29 unwind label %.thread

29:                                               ; preds = %27
  invoke void @_ZN10tinyformat6formatIJNSt3__112basic_stringIcNS1_11char_traitsIcEENS1_9allocatorIcEEEEmmEEES7_PKcDpRKT_(ptr dead_on_unwind nonnull writable sret(%"class.std::__1::basic_string") align 8 %6, ptr noundef nonnull @.str.2, ptr noundef nonnull align 8 dereferenceable(24) %7, ptr noundef nonnull align 8 dereferenceable(8) %5, ptr noundef nonnull align 8 dereferenceable(8) %4)
          to label %30 unwind label %.thread20

30:                                               ; preds = %29
  %31 = load i64, ptr %5, align 8
  invoke void @_ZNSt13runtime_errorC2ERKNSt3__112basic_stringIcNS0_11char_traitsIcEENS0_9allocatorIcEEEE(ptr noundef nonnull align 8 dereferenceable(16) %28, ptr noundef nonnull align 8 dereferenceable(24) %6)
          to label %32 unwind label %36

32:                                               ; preds = %30
  store ptr getelementptr inbounds inrange(-16, 24) ({ [5 x ptr] }, ptr @_ZTVN7mitsuba12EOFExceptionE, i64 0, i32 0, i64 2), ptr %28, align 8
  %33 = getelementptr inbounds i8, ptr %28, i64 16
  store i64 %31, ptr %33, align 8
  invoke void @__cxa_throw(ptr nonnull %28, ptr nonnull @_ZTIN7mitsuba12EOFExceptionE, ptr nonnull @_ZN7mitsuba12EOFExceptionD2Ev) #21
          to label %53 unwind label %36

.thread:                                          ; preds = %27
  %34 = landingpad { ptr, i32 }
          cleanup
  br label %38

.thread20:                                        ; preds = %29
  %35 = landingpad { ptr, i32 }
          cleanup
  call void @_ZNSt3__112basic_stringIcNS_11char_traitsIcEENS_9allocatorIcEEED1Ev(ptr noundef nonnull align 8 dereferenceable(24) %7) #19
  br label %38

36:                                               ; preds = %32, %30
  %.0 = phi i1 [ false, %32 ], [ true, %30 ]
  %37 = landingpad { ptr, i32 }
          cleanup
  call void @_ZNSt3__112basic_stringIcNS_11char_traitsIcEENS_9allocatorIcEEED1Ev(ptr noundef nonnull align 8 dereferenceable(24) %6) #19
  call void @_ZNSt3__112basic_stringIcNS_11char_traitsIcEENS_9allocatorIcEEED1Ev(ptr noundef nonnull align 8 dereferenceable(24) %7) #19
  br i1 %.0, label %38, label %52

38:                                               ; preds = %.thread20, %.thread, %36
  %.pn13.pn19 = phi { ptr, i32 } [ %34, %.thread ], [ %37, %36 ], [ %35, %.thread20 ]
  call void @__cxa_free_exception(ptr %28) #19
  br label %52

39:                                               ; preds = %22
  %40 = load ptr, ptr @_ZN7mitsuba10FileStream7m_classE, align 8
  call void @_ZNK7mitsuba10filesystem4path6stringEv(ptr dead_on_unwind nonnull writable sret(%"class.std::__1::basic_string") align 8 %9, ptr noundef nonnull align 8 dereferenceable(25) %26)
  %41 = tail call ptr @__errno_location() #22
  %42 = load i32, ptr %41, align 4
  %43 = call ptr @strerror(i32 noundef %42) #19
  store ptr %43, ptr %10, align 8
  invoke void @_ZN10tinyformat6formatIJNSt3__112basic_stringIcNS1_11char_traitsIcEENS1_9allocatorIcEEEEmPcEEES7_PKcDpRKT_(ptr dead_on_unwind nonnull writable sret(%"class.std::__1::basic_string") align 8 %8, ptr noundef nonnull @.str.3, ptr noundef nonnull align 8 dereferenceable(24) %9, ptr noundef nonnull align 8 dereferenceable(8) %4, ptr noundef nonnull align 8 dereferenceable(8) %10)
          to label %44 unwind label %46

44:                                               ; preds = %39
  invoke void @_ZN7mitsuba6detail5ThrowENS_8LogLevelEPKNS_5ClassEPKciRKNSt3__112basic_stringIcNS7_11char_traitsIcEENS7_9allocatorIcEEEE(i32 noundef 400, ptr noundef %40, ptr noundef nonnull @.str, i32 noundef 61, ptr noundef nonnull align 8 dereferenceable(24) %8) #21
          to label %45 unwind label %48

45:                                               ; preds = %44
  unreachable

46:                                               ; preds = %39
  %47 = landingpad { ptr, i32 }
          cleanup
  br label %50

48:                                               ; preds = %44
  %49 = landingpad { ptr, i32 }
          cleanup
  call void @_ZNSt3__112basic_stringIcNS_11char_traitsIcEENS_9allocatorIcEEED1Ev(ptr noundef nonnull align 8 dereferenceable(24) %8) #19
  br label %50

50:                                               ; preds = %48, %46
  %.pn = phi { ptr, i32 } [ %49, %48 ], [ %47, %46 ]
  call void @_ZNSt3__112basic_stringIcNS_11char_traitsIcEENS_9allocatorIcEEED1Ev(ptr noundef nonnull align 8 dereferenceable(24) %9) #19
  br label %52

51:                                               ; preds = %3
  ret void

52:                                               ; preds = %36, %38, %50
  %.pn13.pn.pn = phi { ptr, i32 } [ %.pn13.pn19, %38 ], [ %37, %36 ], [ %.pn, %50 ]
  resume { ptr, i32 } %.pn13.pn.pn

53:                                               ; preds = %32
  unreachable
}